(dp0
Vengine
p1
Vpdflatex
p2
sVpackages
p3
c__builtin__
set
p4
((lp5
Vhyperref
p6
aVnatbib
p7
aVxcolor
p8
aVglossaries
p9
aVpdflscape
p10
aVgeometry
p11
aVbabel
p12
aVfancyhdr
p13
aVvhistory
p14
aVcolor
p15
aVappendix
p16
aVsubcaption
p17
aVfontenc
p18
aVgraphicx
p19
aVchangepage
p20
aVinputenc
p21
aVtodonotes
p22
aVtabularx
p23
atp24
Rp25
sVfiles_with_guttermarks
p26
g4
((lp27
V/Users/nuno/Documents/svn/gestao/2016-mei-coordenacao/template-msc/v2/EN_LATEX_template/main.tex
p28
aV/Users/nuno/Documents/svn/gestao/2016-mei-coordenacao/template-msc/v2/EN_LATEX_template/./main.tex
p29
aS'main.tex'
p30
aV/Users/nuno/Documents/svn/gestao/2016-mei-coordenacao/template-msc/v2/EN_LATEX_template/./text/9-appendices.tex
p31
aV/Users/nuno/Documents/svn/gestao/2016-mei-coordenacao/template-msc/v2/EN_LATEX_template/./text/0-titlepage-EN.tex
p32
atp33
Rp34
sVsynctex
p35
I01
s.